; Function Attrs: nounwind uwtable
define <2 x float> @b2Body_GetLocalPointVelocity(i64 %0, <2 x float> %1) local_unnamed_addr #8 {
  %.sroa.2.0.extract.shift = lshr i64 %0, 32
  %3 = trunc nuw i64 %.sroa.2.0.extract.shift to i32
  %4 = and i32 %3, 65535
  %5 = tail call ptr @b2GetWorld(i32 noundef %4) #10
  %6 = getelementptr inbounds nuw i8, ptr %5, i64 1032
  %.val.i = load ptr, ptr %6, align 8, !tbaa !10
  %7 = shl i64 %0, 32
  %sext.i = add i64 %7, -4294967296
  %8 = ashr exact i64 %sext.i, 25
  %9 = getelementptr inbounds i8, ptr %.val.i, i64 %8
  %10 = getelementptr inbounds nuw i8, ptr %9, i64 40
  %11 = load i32, ptr %10, align 8, !tbaa !19
  %12 = icmp eq i32 %11, 2
  br i1 %12, label %b2GetBodyState.exit, label %b2GetBodyState.exit.thread

b2GetBodyState.exit:                              ; preds = %2
  %13 = getelementptr inbounds nuw i8, ptr %5, i64 1072
  %.val.i18 = load ptr, ptr %13, align 8, !tbaa !24
  %14 = getelementptr inbounds nuw i8, ptr %.val.i18, i64 192
  %.val5.i = load ptr, ptr %14, align 8, !tbaa !18
  %15 = icmp eq ptr %.val5.i, null
  br i1 %15, label %b2GetBodyState.exit.thread, label %16

16:                                               ; preds = %b2GetBodyState.exit
  %17 = getelementptr inbounds nuw i8, ptr %9, i64 44
  %18 = load i32, ptr %17, align 4, !tbaa !27
  %19 = sext i32 %18 to i64
  %20 = getelementptr inbounds %struct.b2BodyState, ptr %.val5.i, i64 %19
  %21 = getelementptr inbounds nuw i8, ptr %.val.i18, i64 176
  %.val17 = load ptr, ptr %21, align 8, !tbaa !14
  %22 = getelementptr inbounds %struct.b2BodySim, ptr %.val17, i64 %19
  %23 = getelementptr inbounds nuw i8, ptr %22, i64 8
  %24 = getelementptr inbounds nuw i8, ptr %22, i64 40
  %25 = load <2 x float>, ptr %24, align 4
  %26 = fsub <2 x float> %1, %25
  %27 = extractelement <2 x float> %26, i64 0
  %28 = fsub <2 x float> %1, %25
  %29 = extractelement <2 x float> %28, i64 1
  %30 = load <2 x float>, ptr %23, align 4
  %.sroa.05.0.vec.extract.i = extractelement <2 x float> %30, i64 0
  %31 = fmul <2 x float> %30, %26
  %32 = extractelement <2 x float> %31, i64 0
  %.sroa.05.4.vec.extract.i = extractelement <2 x float> %30, i64 1
  %33 = fmul float %.sroa.05.4.vec.extract.i, %29
  %34 = fsub float %32, %33
  %35 = fmul float %.sroa.05.4.vec.extract.i, %27
  %36 = fmul float %.sroa.05.0.vec.extract.i, %29
  %37 = fadd float %35, %36
  %38 = getelementptr inbounds nuw i8, ptr %20, i64 8
  %39 = load float, ptr %38, align 4, !tbaa !117
  %40 = fmul float %39, %34
  %41 = load <2 x float>, ptr %20, align 4
  %.sroa.01.0.vec.extract.i25 = extractelement <2 x float> %41, i64 0
  %42 = fmul float %39, %37
  %43 = fsub float %.sroa.01.0.vec.extract.i25, %42
  %.sroa.02.0.vec.insert.i27 = insertelement <2 x float> poison, float %43, i64 0
  %.sroa.01.4.vec.extract.i28 = extractelement <2 x float> %41, i64 1
  %44 = fadd float %.sroa.01.4.vec.extract.i28, %40
  %.sroa.02.4.vec.insert.i30 = insertelement <2 x float> %.sroa.02.0.vec.insert.i27, float %44, i64 1
  br label %b2GetBodyState.exit.thread

b2GetBodyState.exit.thread:                       ; preds = %2, %b2GetBodyState.exit, %16
  %.sroa.016.0 = phi <2 x float> [ %.sroa.02.4.vec.insert.i30, %16 ], [ zeroinitializer, %b2GetBodyState.exit ], [ zeroinitializer, %2 ]
  ret <2 x float> %.sroa.016.0
}